target datalayout = "e-m:e-p270:32:32-p271:32:32-p272:64:64-i64:64-i128:128-f80:128-n8:16:32:64-S128"
target triple = "x86_64-pc-linux-gnu"

%struct.expert_field = type { i32, i32 }
%struct._packet_info = type { ptr, ptr, i32, i32, %struct.nstime_t, %struct.nstime_t, %struct.nstime_t, i32, ptr, ptr, ptr, ptr, %struct._address, %struct._address, %struct._address, %struct._address, %struct._address, %struct._address, i32, ptr, i32, %struct.anon, i32, i32, i32, i32, ptr, i32, ptr, ptr, i16, i16, i32, i32, i16, i32, i32, ptr, ptr, ptr, i8, i8, i16, i16, i16, i32, i16, i16, ptr, ptr, ptr, ptr, ptr, i32 }
%struct.nstime_t = type { i64, i32 }
%struct._address = type { i32, i32, ptr, ptr }
%struct.anon = type { i8, [3 x i8] }

@ett_git = internal global i32 0, align 4
@ei_git_malformed = internal global %struct.expert_field zeroinitializer, align 4
@.str.20 = private unnamed_addr constant [19 x i8] c"Git Smart Protocol\00", align 1
@.str.21 = private unnamed_addr constant [4 x i8] c"Git\00", align 1
@proto_git = internal global i32 0, align 4

; Function Attrs: nounwind uwtable
define internal i32 @dissect_http_pkt_lines(ptr noundef %0, ptr noundef %1, ptr noundef %2, i32 noundef %3) #0 {
  %5 = alloca ptr, align 8
  %6 = alloca ptr, align 8
  %7 = alloca ptr, align 8
  %8 = alloca i32, align 4
  %9 = alloca ptr, align 8
  %10 = alloca ptr, align 8
  %11 = alloca i32, align 4
  %12 = alloca i32, align 4
  store ptr %0, ptr %5, align 8
  store ptr %1, ptr %6, align 8
  store ptr %2, ptr %7, align 8
  store i32 %3, ptr %8, align 4
  store i32 0, ptr %11, align 4
  store i32 0, ptr %12, align 4
  %13 = load ptr, ptr %6, align 8
  %14 = getelementptr inbounds %struct._packet_info, ptr %13, i32 0, i32 1
  %15 = load ptr, ptr %14, align 8
  call void @col_set_str(ptr noundef %15, i32 noundef 34, ptr noundef @.str.21)
  %16 = load ptr, ptr %6, align 8
  %17 = getelementptr inbounds %struct._packet_info, ptr %16, i32 0, i32 1
  %18 = load ptr, ptr %17, align 8
  call void @col_set_str(ptr noundef %18, i32 noundef 25, ptr noundef @.str.20)
  %19 = load ptr, ptr %7, align 8
  %20 = load i32, ptr @proto_git, align 4
  %21 = load ptr, ptr %5, align 8
  %22 = load i32, ptr %11, align 4
  %23 = call ptr @proto_tree_add_item(ptr noundef %19, i32 noundef %20, ptr noundef %21, i32 noundef %22, i32 noundef -1, i32 noundef 0)
  store ptr %23, ptr %10, align 8
  %24 = load ptr, ptr %10, align 8
  %25 = load i32, ptr @ett_git, align 4
  %26 = call ptr @proto_item_add_subtree(ptr noundef %24, i32 noundef %25)
  store ptr %26, ptr %9, align 8
  %27 = load ptr, ptr %9, align 8
  %28 = load i32, ptr %8, align 4
  %29 = load ptr, ptr %5, align 8
  %30 = load i32, ptr %11, align 4
  %31 = load ptr, ptr %5, align 8
  %32 = call i32 @tvb_captured_length(ptr noundef %31)
  %33 = call ptr @proto_tree_add_item(ptr noundef %27, i32 noundef %28, ptr noundef %29, i32 noundef %30, i32 noundef %32, i32 noundef 0)
  %34 = load ptr, ptr %5, align 8
  %35 = call i32 @tvb_reported_length(ptr noundef %34)
  store i32 %35, ptr %12, align 4
  br label %36

36:                                               ; preds = %52, %4
  %37 = load i32, ptr %11, align 4
  %38 = load i32, ptr %12, align 4
  %39 = icmp slt i32 %37, %38
  br i1 %39, label %40, label %53

40:                                               ; preds = %36
  %41 = load ptr, ptr %5, align 8
  %42 = load ptr, ptr %6, align 8
  %43 = load ptr, ptr %9, align 8
  %44 = call i32 @dissect_pkt_line(ptr noundef %41, ptr noundef %42, ptr noundef %43, ptr noundef %11)
  %45 = icmp ne i32 %44, 0
  br i1 %45, label %52, label %46

46:                                               ; preds = %40
  %47 = load ptr, ptr %9, align 8
  %48 = load ptr, ptr %6, align 8
  %49 = load ptr, ptr %5, align 8
  %50 = load i32, ptr %11, align 4
  %51 = call ptr @proto_tree_add_expert(ptr noundef %47, ptr noundef %48, ptr noundef @ei_git_malformed, ptr noundef %49, i32 noundef %50, i32 noundef -1)
  br label %53

52:                                               ; preds = %40
  br label %36, !llvm.loop !4

53:                                               ; preds = %46, %36
  %54 = load ptr, ptr %5, align 8
  %55 = call i32 @tvb_captured_length(ptr noundef %54)
  ret i32 %55
}