; Function Attrs: nounwind uwtable
define internal fastcc i32 @dissect_http_pkt_lines(ptr noundef %0, ptr noundef %1, ptr noundef %2, i32 noundef %3) unnamed_addr #0 {
  %5 = alloca i32, align 4
  store i32 0, ptr %5, align 4
  %6 = getelementptr inbounds nuw i8, ptr %1, i64 8
  %7 = load ptr, ptr %6, align 8
  tail call void @col_set_str(ptr noundef %7, i32 noundef 34, ptr noundef nonnull @.str.21) #4
  %8 = load ptr, ptr %6, align 8
  tail call void @col_set_str(ptr noundef %8, i32 noundef 25, ptr noundef nonnull @.str.20) #4
  %9 = load i32, ptr @proto_git, align 4
  %10 = tail call ptr @proto_tree_add_item(ptr noundef %2, i32 noundef %9, ptr noundef %0, i32 noundef 0, i32 noundef -1, i32 noundef 0) #4
  %11 = load i32, ptr @ett_git, align 4
  %12 = tail call ptr @proto_item_add_subtree(ptr noundef %10, i32 noundef %11) #4
  %13 = tail call i32 @tvb_captured_length(ptr noundef %0) #4
  %14 = tail call ptr @proto_tree_add_item(ptr noundef %12, i32 noundef %3, ptr noundef %0, i32 noundef 0, i32 noundef %13, i32 noundef 0) #4
  %15 = tail call i32 @tvb_reported_length(ptr noundef %0) #4
  br label %16

16:                                               ; preds = %19, %4
  %17 = load i32, ptr %5, align 4
  %18 = icmp slt i32 %17, %15
  br i1 %18, label %19, label %.loopexit

19:                                               ; preds = %16
  %20 = call fastcc i32 @dissect_pkt_line(ptr noundef %0, ptr noundef %1, ptr noundef %12, ptr noundef %5)
  %.not = icmp eq i32 %20, 0
  br i1 %.not, label %21, label %16, !llvm.loop !4

21:                                               ; preds = %19
  %22 = load i32, ptr %5, align 4
  %23 = tail call ptr @proto_tree_add_expert(ptr noundef %12, ptr noundef %1, ptr noundef nonnull @ei_git_malformed, ptr noundef %0, i32 noundef %22, i32 noundef -1) #4
  br label %.loopexit

.loopexit:                                        ; preds = %16, %21
  %24 = tail call i32 @tvb_captured_length(ptr noundef %0) #4
  ret i32 %24
}